; Function Attrs: mustprogress uwtable
define noundef zeroext i1 @_ZNK32pxrInternal_v0_24__pxrReserved__9UsdObject20SetMetadataByDictKeyERKNS_7TfTokenES3_RKNS_7VtValueE(ptr noundef nonnull align 8 dereferenceable(32) %0, ptr noundef nonnull align 8 dereferenceable(8) %1, ptr noundef nonnull align 8 dereferenceable(8) %2, ptr noundef nonnull align 8 dereferenceable(16) %3) local_unnamed_addr #0 align 2 {
  %5 = getelementptr inbounds nuw i8, ptr %0, i64 8
  %6 = load ptr, ptr %5, align 8
  %.not.i.i.i = icmp eq ptr %6, null
  br i1 %.not.i.i.i, label %11, label %7

7:                                                ; preds = %4
  %8 = getelementptr inbounds nuw i8, ptr %6, i64 56
  %9 = load i64, ptr %8, align 8
  %10 = and i64 %9, 2048
  %.not5.i.i.i = icmp eq i64 %10, 0
  br i1 %.not5.i.i.i, label %_ZNK32pxrInternal_v0_24__pxrReserved__9UsdObject16_SetMetadataImplERKNS_7TfTokenERKNS_7VtValueES3_.exit, label %11

11:                                               ; preds = %7, %4
  tail call void @_ZN32pxrInternal_v0_24__pxrReserved__31Usd_ThrowExpiredPrimAccessErrorEPKNS_12Usd_PrimDataE(ptr noundef %6)
  br label %_ZNK32pxrInternal_v0_24__pxrReserved__9UsdObject16_SetMetadataImplERKNS_7TfTokenERKNS_7VtValueES3_.exit

_ZNK32pxrInternal_v0_24__pxrReserved__9UsdObject16_SetMetadataImplERKNS_7TfTokenERKNS_7VtValueES3_.exit: ; preds = %7, %11
  %12 = load ptr, ptr %6, align 8
  %13 = tail call noundef zeroext i1 @_ZN32pxrInternal_v0_24__pxrReserved__8UsdStage12_SetMetadataERKNS_9UsdObjectERKNS_7TfTokenES6_RKNS_7VtValueE(ptr noundef nonnull align 8 dereferenceable(1282) %12, ptr noundef nonnull align 8 dereferenceable(32) %0, ptr noundef nonnull align 8 dereferenceable(8) %1, ptr noundef nonnull align 8 dereferenceable(8) %2, ptr noundef nonnull align 8 dereferenceable(16) %3)
  ret i1 %13
}